; Function Attrs: mustprogress nounwind uwtable
define hidden noundef ptr @_ZNK7MemNode8adr_typeEv(ptr nocapture noundef nonnull readonly align 8 dereferenceable(56) %0) unnamed_addr #1 align 2 {
  %2 = getelementptr inbounds i8, ptr %0, i64 8
  %3 = load ptr, ptr %2, align 8
  %4 = getelementptr inbounds i8, ptr %3, i64 16
  %5 = load ptr, ptr %4, align 8
  %6 = icmp eq ptr %5, null
  br i1 %6, label %_ZN7MemNode18calculate_adr_typeEPK4TypePK7TypePtr.exit, label %7

7:                                                ; preds = %1
  %8 = load ptr, ptr %5, align 8
  %9 = getelementptr inbounds i8, ptr %8, i64 40
  %10 = load ptr, ptr %9, align 8
  %11 = tail call noundef ptr %10(ptr noundef nonnull align 8 dereferenceable(52) %5) #13
  %12 = load ptr, ptr @_ZN4Type3TOPE, align 8
  %13 = icmp eq ptr %12, %11
  br i1 %13, label %_ZN7MemNode18calculate_adr_typeEPK4TypePK7TypePtr.exit, label %14

14:                                               ; preds = %7
  %15 = getelementptr inbounds i8, ptr %11, i64 16
  %16 = load i32, ptr %15, align 8
  %17 = add i32 %16, -18
  %or.cond.i.i = icmp ult i32 %17, 9
  %18 = select i1 %or.cond.i.i, ptr %11, ptr null
  %19 = icmp eq ptr %18, null
  %20 = load ptr, ptr @_ZN7TypePtr6BOTTOME, align 8
  %spec.select.i = select i1 %19, ptr %20, ptr %18
  br label %_ZN7MemNode18calculate_adr_typeEPK4TypePK7TypePtr.exit

_ZN7MemNode18calculate_adr_typeEPK4TypePK7TypePtr.exit: ; preds = %14, %7, %1
  %.0 = phi ptr [ null, %1 ], [ null, %7 ], [ %spec.select.i, %14 ]
  ret ptr %.0
}